target datalayout = "e-m:e-p270:32:32-p271:32:32-p272:64:64-i64:64-i128:128-f80:128-n8:16:32:64-S128"
target triple = "x86_64-pc-linux-gnu"

%struct._object = type { %union.anon, ptr }
%union.anon = type { i64 }
%struct.pysqlite_Connection = type { %struct._object, ptr, ptr, i32, ptr, i32, i32, i32, i64, ptr, ptr, ptr, i32, ptr, ptr, ptr, ptr, ptr, ptr, ptr, ptr, ptr, ptr, ptr, ptr, ptr, ptr, ptr }

; Function Attrs: inlinehint nounwind uwtable
define internal i32 @connection_exec_stmt(ptr noundef %0, ptr noundef %1) #2 {
  %3 = alloca i32, align 4
  %4 = alloca ptr, align 8
  %5 = alloca ptr, align 8
  %6 = alloca i32, align 4
  %7 = alloca ptr, align 8
  %8 = alloca i32, align 4
  %9 = alloca ptr, align 8
  %10 = alloca i32, align 4
  store ptr %0, ptr %4, align 8, !tbaa !3
  store ptr %1, ptr %5, align 8, !tbaa !42
  call void @llvm.lifetime.start.p0(i64 4, ptr %6) #8
  call void @llvm.lifetime.start.p0(i64 8, ptr %7) #8
  %11 = call ptr @PyEval_SaveThread()
  store ptr %11, ptr %7, align 8, !tbaa !58
  call void @llvm.lifetime.start.p0(i64 4, ptr %8) #8
  %12 = load ptr, ptr %5, align 8, !tbaa !42
  %13 = call i64 @strlen(ptr noundef %12) #9
  %14 = trunc i64 %13 to i32
  %15 = add i32 %14, 1
  store i32 %15, ptr %8, align 4, !tbaa !30
  call void @llvm.lifetime.start.p0(i64 8, ptr %9) #8
  %16 = load ptr, ptr %4, align 8, !tbaa !3
  %17 = getelementptr inbounds nuw %struct.pysqlite_Connection, ptr %16, i32 0, i32 1
  %18 = load ptr, ptr %17, align 8, !tbaa !19
  %19 = load ptr, ptr %5, align 8, !tbaa !42
  %20 = load i32, ptr %8, align 4, !tbaa !30
  %21 = call i32 @sqlite3_prepare_v2(ptr noundef %18, ptr noundef %19, i32 noundef %20, ptr noundef %9, ptr noundef null)
  store i32 %21, ptr %6, align 4, !tbaa !30
  %22 = load i32, ptr %6, align 4, !tbaa !30
  %23 = icmp eq i32 %22, 0
  br i1 %23, label %24, label %29

24:                                               ; preds = %2
  %25 = load ptr, ptr %9, align 8, !tbaa !60
  %26 = call i32 @sqlite3_step(ptr noundef %25)
  %27 = load ptr, ptr %9, align 8, !tbaa !60
  %28 = call i32 @sqlite3_finalize(ptr noundef %27)
  store i32 %28, ptr %6, align 4, !tbaa !30
  br label %29

29:                                               ; preds = %24, %2
  %30 = load ptr, ptr %7, align 8, !tbaa !58
  call void @PyEval_RestoreThread(ptr noundef %30)
  call void @llvm.lifetime.end.p0(i64 8, ptr %9) #8
  call void @llvm.lifetime.end.p0(i64 4, ptr %8) #8
  call void @llvm.lifetime.end.p0(i64 8, ptr %7) #8
  %31 = load i32, ptr %6, align 4, !tbaa !30
  %32 = icmp ne i32 %31, 0
  br i1 %32, label %33, label %41

33:                                               ; preds = %29
  %34 = load ptr, ptr %4, align 8, !tbaa !3
  %35 = getelementptr inbounds nuw %struct.pysqlite_Connection, ptr %34, i32 0, i32 2
  %36 = load ptr, ptr %35, align 8, !tbaa !20
  %37 = load ptr, ptr %4, align 8, !tbaa !3
  %38 = getelementptr inbounds nuw %struct.pysqlite_Connection, ptr %37, i32 0, i32 1
  %39 = load ptr, ptr %38, align 8, !tbaa !19
  %40 = call i32 @_pysqlite_seterror(ptr noundef %36, ptr noundef %39)
  store i32 -1, ptr %3, align 4
  store i32 1, ptr %10, align 4
  br label %42

41:                                               ; preds = %29
  store i32 0, ptr %3, align 4
  store i32 1, ptr %10, align 4
  br label %42

42:                                               ; preds = %41, %33
  call void @llvm.lifetime.end.p0(i64 4, ptr %6) #8
  %43 = load i32, ptr %3, align 4
  ret i32 %43
}