; Function Attrs: inlinehint nounwind uwtable
define internal fastcc range(i32 -1, 1) i32 @connection_exec_stmt(ptr noundef readonly captures(none) %0, ptr noundef %1) unnamed_addr #3 {
  %3 = alloca ptr, align 8
  %4 = tail call ptr @PyEval_SaveThread() #7
  %5 = tail call i64 @strlen(ptr noundef nonnull dereferenceable(1) %1) #8
  %6 = trunc i64 %5 to i32
  %7 = add i32 %6, 1
  call void @llvm.lifetime.start.p0(i64 8, ptr nonnull %3) #7
  %8 = getelementptr inbounds nuw i8, ptr %0, i64 16
  %9 = load ptr, ptr %8, align 8, !tbaa !17
  %10 = call i32 @sqlite3_prepare_v2(ptr noundef %9, ptr noundef nonnull %1, i32 noundef %7, ptr noundef nonnull %3, ptr noundef null) #7
  %11 = icmp eq i32 %10, 0
  br i1 %11, label %12, label %.critedge

12:                                               ; preds = %2
  %13 = load ptr, ptr %3, align 8, !tbaa !82
  %14 = call i32 @sqlite3_step(ptr noundef %13) #7
  %15 = load ptr, ptr %3, align 8, !tbaa !82
  %16 = call i32 @sqlite3_finalize(ptr noundef %15) #7
  %17 = icmp eq i32 %16, 0
  call void @PyEval_RestoreThread(ptr noundef %4) #7
  call void @llvm.lifetime.end.p0(i64 8, ptr nonnull %3) #7
  br i1 %17, label %23, label %18

.critedge:                                        ; preds = %2
  call void @PyEval_RestoreThread(ptr noundef %4) #7
  call void @llvm.lifetime.end.p0(i64 8, ptr nonnull %3) #7
  br label %18

18:                                               ; preds = %.critedge, %12
  %19 = getelementptr inbounds nuw i8, ptr %0, i64 24
  %20 = load ptr, ptr %19, align 8, !tbaa !18
  %21 = load ptr, ptr %8, align 8, !tbaa !17
  %22 = call i32 @_pysqlite_seterror(ptr noundef %20, ptr noundef %21) #7
  br label %23

23:                                               ; preds = %12, %18
  %.0 = phi i32 [ -1, %18 ], [ 0, %12 ]
  ret i32 %.0
}